target datalayout = "e-m:e-p270:32:32-p271:32:32-p272:64:64-i64:64-i128:128-f80:128-n8:16:32:64-S128"
target triple = "x86_64-pc-linux-gnu"

%struct.rb_data_type_struct = type { ptr, %struct.anon, ptr, ptr, i64 }
%struct.anon = type { ptr, ptr, ptr, ptr, [1 x ptr] }
%struct.rb_stat = type { %struct.stat, i8 }
%struct.stat = type { i64, i64, i64, i32, i32, i32, i32, i64, i64, i64, i64, %struct.timespec, %struct.timespec, %struct.timespec, [3 x i64] }
%struct.timespec = type { i64, i64 }

@stat_data_type = internal constant %struct.rb_data_type_struct { ptr @.str.37, %struct.anon { ptr null, ptr inttoptr (i64 -1 to ptr), ptr null, ptr null, [1 x ptr] zeroinitializer }, ptr null, ptr null, i64 35 }, align 8
@rb_eTypeError = external global i64, align 8
@.str.147 = private unnamed_addr constant [25 x i8] c"uninitialized File::Stat\00", align 1

; Function Attrs: nounwind sspstrong uwtable
define internal i64 @rb_stat_rowned(i64 noundef %0) #0 {
  %2 = alloca i64, align 8
  %3 = alloca i64, align 8
  store i64 %0, ptr %3, align 8, !tbaa !7
  %4 = load i64, ptr %3, align 8, !tbaa !7
  %5 = call ptr @get_stat(i64 noundef %4)
  %6 = getelementptr inbounds nuw %struct.stat, ptr %5, i32 0, i32 4
  %7 = load i32, ptr %6, align 4, !tbaa !112
  %8 = call i32 @getuid() #24
  %9 = icmp eq i32 %7, %8
  br i1 %9, label %10, label %11

10:                                               ; preds = %1
  store i64 20, ptr %2, align 8
  br label %12

11:                                               ; preds = %1
  store i64 0, ptr %2, align 8
  br label %12

12:                                               ; preds = %11, %10
  %13 = load i64, ptr %2, align 8
  ret i64 %13
}

; Function Attrs: nounwind sspstrong uwtable
define internal ptr @get_stat(i64 noundef %0) #0 {
  %2 = alloca i64, align 8
  %3 = alloca ptr, align 8
  store i64 %0, ptr %2, align 8, !tbaa !7
  call void @llvm.lifetime.start.p0(i64 8, ptr %3) #24
  %4 = load i64, ptr %2, align 8, !tbaa !7
  %5 = call ptr @rb_check_typeddata(i64 noundef %4, ptr noundef @stat_data_type)
  store ptr %5, ptr %3, align 8, !tbaa !24
  %6 = load ptr, ptr %3, align 8, !tbaa !24
  %7 = getelementptr inbounds nuw %struct.rb_stat, ptr %6, i32 0, i32 1
  %8 = load i8, ptr %7, align 8, !tbaa !28, !range !164, !noundef !165
  %9 = trunc i8 %8 to i1
  br i1 %9, label %12, label %10

10:                                               ; preds = %1
  %11 = load i64, ptr @rb_eTypeError, align 8, !tbaa !7
  call void (i64, ptr, ...) @rb_raise(i64 noundef %11, ptr noundef @.str.147) #28
  unreachable

12:                                               ; preds = %1
  %13 = load ptr, ptr %3, align 8, !tbaa !24
  %14 = getelementptr inbounds nuw %struct.rb_stat, ptr %13, i32 0, i32 0
  call void @llvm.lifetime.end.p0(i64 8, ptr %3) #24
  ret ptr %14
}

; Function Attrs: nounwind sspstrong uwtable
define internal i64 @rb_stat_X(i64 noundef %0) #0 {
  %2 = alloca i64, align 8
  %3 = alloca i64, align 8
  %4 = alloca ptr, align 8
  %5 = alloca i32, align 4
  store i64 %0, ptr %3, align 8, !tbaa !7
  call void @llvm.lifetime.start.p0(i64 8, ptr %4) #24
  %6 = load i64, ptr %3, align 8, !tbaa !7
  %7 = call ptr @get_stat(i64 noundef %6)
  store ptr %7, ptr %4, align 8, !tbaa !22
  %8 = call i32 @getuid() #24
  %9 = icmp eq i32 %8, 0
  br i1 %9, label %10, label %17

10:                                               ; preds = %1
  %11 = load ptr, ptr %4, align 8, !tbaa !22
  %12 = getelementptr inbounds nuw %struct.stat, ptr %11, i32 0, i32 3
  %13 = load i32, ptr %12, align 8, !tbaa !33
  %14 = and i32 %13, 73
  %15 = icmp ne i32 %14, 0
  %16 = select i1 %15, i64 20, i64 0
  store i64 %16, ptr %2, align 8
  store i32 1, ptr %5, align 4
  br label %50

17:                                               ; preds = %1
  %18 = load i64, ptr %3, align 8, !tbaa !7
  %19 = call i64 @rb_stat_rowned(i64 noundef %18)
  %20 = icmp ne i64 %19, 0
  br i1 %20, label %21, label %28

21:                                               ; preds = %17
  %22 = load ptr, ptr %4, align 8, !tbaa !22
  %23 = getelementptr inbounds nuw %struct.stat, ptr %22, i32 0, i32 3
  %24 = load i32, ptr %23, align 8, !tbaa !33
  %25 = and i32 %24, 64
  %26 = icmp ne i32 %25, 0
  %27 = select i1 %26, i64 20, i64 0
  store i64 %27, ptr %2, align 8
  store i32 1, ptr %5, align 4
  br label %50

28:                                               ; preds = %17
  %29 = load i64, ptr %3, align 8, !tbaa !7
  %30 = call ptr @get_stat(i64 noundef %29)
  %31 = getelementptr inbounds nuw %struct.stat, ptr %30, i32 0, i32 5
  %32 = load i32, ptr %31, align 8, !tbaa !113
  %33 = call i32 @rb_group_member(i32 noundef %32)
  %34 = icmp ne i32 %33, 0
  br i1 %34, label %35, label %42

35:                                               ; preds = %28
  %36 = load ptr, ptr %4, align 8, !tbaa !22
  %37 = getelementptr inbounds nuw %struct.stat, ptr %36, i32 0, i32 3
  %38 = load i32, ptr %37, align 8, !tbaa !33
  %39 = and i32 %38, 8
  %40 = icmp ne i32 %39, 0
  %41 = select i1 %40, i64 20, i64 0
  store i64 %41, ptr %2, align 8
  store i32 1, ptr %5, align 4
  br label %50

42:                                               ; preds = %28
  %43 = load ptr, ptr %4, align 8, !tbaa !22
  %44 = getelementptr inbounds nuw %struct.stat, ptr %43, i32 0, i32 3
  %45 = load i32, ptr %44, align 8, !tbaa !33
  %46 = and i32 %45, 1
  %47 = icmp ne i32 %46, 0
  br i1 %47, label %49, label %48

48:                                               ; preds = %42
  store i64 0, ptr %2, align 8
  store i32 1, ptr %5, align 4
  br label %50

49:                                               ; preds = %42
  store i64 20, ptr %2, align 8
  store i32 1, ptr %5, align 4
  br label %50

50:                                               ; preds = %49, %48, %35, %21, %10
  call void @llvm.lifetime.end.p0(i64 8, ptr %4) #24
  %51 = load i64, ptr %2, align 8
  ret i64 %51
}